; Function Attrs: mustprogress uwtable
define void @_ZN6casadi17SerializingStream4packEc(ptr nocapture noundef nonnull readonly align 8 dereferenceable(73) %0, i8 noundef signext %1) local_unnamed_addr #3 align 2 {
  %3 = getelementptr inbounds i8, ptr %0, i64 64
  %4 = load ptr, ptr %3, align 8
  %5 = and i8 %1, 15
  %6 = add nuw nsw i8 %5, 97
  %7 = tail call noundef nonnull align 8 dereferenceable(8) ptr @_ZNSo3putEc(ptr noundef nonnull align 8 dereferenceable(8) %4, i8 noundef signext %6)
  %8 = load ptr, ptr %3, align 8
  %9 = lshr i8 %1, 4
  %narrow = add nuw nsw i8 %9, 97
  %10 = tail call noundef nonnull align 8 dereferenceable(8) ptr @_ZNSo3putEc(ptr noundef nonnull align 8 dereferenceable(8) %8, i8 noundef signext %narrow)
  ret void
}